(lp0
(lp1
S'hackerrank.txt'
p2
aS'iitbhu.txt'
p3
aS'varanasi.txt'
p4
aS'vishal.txt'
p5
aa(dp6
g2
I0
sg5
I3
sg3
I1
sg4
I2
sa(dp7
S'colleges'
p8
(lp9
g3
asS'four'
p10
(lp11
g3
asS'facilities'
p12
(lp13
g3
asS'ornate'
p14
(lp15
g4
asS'consists'
p16
(lp17
g3
asS'hostel.'
p18
(lp19
g3
asS'granting'
p20
(lp21
g3
asS'1939.'
p22
(lp23
g3
asS'Western'
p24
(lp25
g3
asS'under'
p26
(lp27
g3
asS'(DoSA)'
p28
(lp29
g3
asS'Mettle'
p30
(lp31
g3
asS'awareness.'
p32
(lp33
g3
asS'regional'
p34
(lp35
g3
asS'every'
p36
(lp37
g3
asS'1937,'
p38
(lp39
g3
asS'monkeys'
p40
(lp41
g4
asS'(Amendment)'
p42
(lp43
g3
asS'solution'
p44
(lp45
g2
asS'SQL)'
p46
(lp47
g2
asS'(MCIIE)'
p48
(lp49
g3
asS'hostels'
p50
(lp51
g3
asS'enjoy'
p52
(lp53
g3
asS'Inter-Branch)'
p54
(lp55
g3
asS'galas'
p56
(lp57
g3
asS'disciplines'
p58
(lp59
g3
asS'B.Sc.'
p60
(lp61
g3
asS'C++,'
p62
(lp63
g2
asS'surrounding'
p64
(lp65
g3
asS'(BENCO),'
p66
(lp67
g3
asS'others.'
p68
(lp69
g4
asS'implemented'
p70
(lp71
g3
asS'position.[28]'
p72
(lp73
g3
asS'established'
p74
(lp75
g3
ag4
asS'villages.'
p76
(lp77
g3
asS'lights'
p78
(lp79
g4
asS'above'
p80
(lp81
g3
asS'new'
p82
(lp83
g3
asS'consisting'
p84
(lp85
g3
asS'courses.'
p86
(lp87
g3
asS'reasons,'
p88
(lp89
g3
asS'here'
p90
(lp91
g4
asS'2005.[30]'
p92
(lp93
g3
asS'celebration'
p94
(lp95
g3
asS'kids'
p96
(lp97
g3
asS'study'
p98
(lp99
g3
asS'credit'
p100
(lp101
g3
asS'Relations'
p102
(lp103
g3
asS'Jigyasa'
p104
(lp105
g3
asS'Health'
p106
(lp107
g3
asS'unit'
p108
(lp109
g3
asS'June'
p110
(lp111
g3
asS'Babatpur'
p112
(lp113
g4
asS'program'
p114
(lp115
g3
asS'25th'
p116
(lp117
g3
asS'institute.[31]'
p118
(lp119
g3
asS'females'
p120
(lp121
g3
asS'holy'
p122
(lp123
g4
asS'Ministry'
p124
(lp125
g3
asS'successful'
p126
(lp127
g3
asS'brings'
p128
(lp129
g3
asS'(MINMET),'
p130
(lp131
g3
asS'TECHNO'
p132
(lp133
g3
asS'Jyotirlinga'
p134
(lp135
g4
asS'inhabited'
p136
(lp137
g4
asS'Kakarmatta.'
p138
(lp139
g3
asS'intake'
p140
(lp141
g3
asS'society.'
p142
(lp143
g3
asS'roof'
p144
(lp145
g4
asS'Mohan'
p146
(lp147
g3
asS'(Machine'
p148
(lp149
g3
asS'example'
p150
(lp151
g4
asS'(B.Pharm'
p152
(lp153
g3
asS'degrees.'
p154
(lp155
g3
asS'organized'
p156
(lp157
g3
asS'Digital'
p158
(lp159
g3
asS'Lord'
p160
(lp161
g4
asS'organizes'
p162
(lp163
g3
asS'attract'
p164
(lp165
g3
asS'gargantuan'
p166
(lp167
g3
asS'ceremony'
p168
(lp169
g3
asS'IIT'
p170
(lp171
g3
asS'end'
p172
(lp173
g3
asS'(hitherto'
p174
(lp175
g3
asS'Admissions'
p176
(lp177
g3
asS'oldest,'
p178
(lp179
g4
asS'A'
p180
(lp181
g3
asS'assistance,'
p182
(lp183
g3
asS'earlier'
p184
(lp185
g3
asS'vicious'
p186
(lp187
g4
asS'Jyotirlingas,'
p188
(lp189
g4
asS'All'
p190
(lp191
g3
asS'Civil'
p192
(lp193
g3
asS'acknowledged'
p194
(lp195
g3
asS'Uttar'
p196
(lp197
g3
ag4
asS'Maharani'
p198
(lp199
g4
asS'firms.[20]'
p200
(lp201
g3
asS'Festivals'
p202
(lp203
g3
asS'order'
p204
(lp205
g3
asS'Prastuti'
p206
(lp207
g3
asS'sub-committees'
p208
(lp209
g3
asS'over'
p210
(lp211
g2
ag3
ag4
asS'vary'
p212
(lp213
g3
asS'Kashi'
p214
(lp215
g3
ag4
asS'then,'
p216
(lp217
g4
asS'rankings'
p218
(lp219
g3
asS'destroyed'
p220
(lp221
g4
asS'Donation'
p222
(lp223
g3
asS'400'
p224
(lp225
g3
asS'weeks'
p226
(lp227
g3
asS'SAP'
p228
(lp229
g3
asS'then'
p230
(lp231
g2
ag3
asS'them'
p232
(lp233
g3
asS'they'
p234
(lp235
g3
asS'bank'
p236
(lp237
g3
ag4
asS'Control'
p238
(lp239
g3
asS'week.'
p240
(lp241
g3
asS'notified'
p242
(lp243
g3
asS'India'
p244
(lp245
g3
ag4
asS'each'
p246
(lp247
g3
asS'schemes'
p248
(lp249
g3
asS'councils'
p250
(lp251
g3
asS'laboratory'
p252
(lp253
g3
asS'(a)'
p254
(lp255
g3
asS'Chancellor'
p256
(lp257
g3
asS'carvings.'
p258
(lp259
g4
asS'day,'
p260
(lp261
g4
asS'Vishal'
p262
(lp263
g5
asS'Committees'
p264
(lp265
g3
asS'Technology.[4]'
p266
(lp267
g3
asS'University'
p268
(lp269
g3
asS'free'
p270
(lp271
g2
asS'Studies'
p272
(lp273
g3
asS'September'
p274
(lp275
g3
asS'National'
p276
(lp277
g3
asS'Human'
p278
(lp279
g3
asS'footsteps'
p280
(lp281
g3
asS'grade'
p282
(lp283
g3
asS'Outreach'
p284
(lp285
g3
asS'another'
p286
(lp287
g4
asS'Secretaries'
p288
(lp289
g3
asS'(UGC)'
p290
(lp291
g3
asS'top'
p292
(lp293
g3
asS'girls'
p294
(lp295
g3
asS'nation.'
p296
(lp297
g3
asS'(BHU).'
p298
(lp299
g3
asS'College,'
p300
(lp301
g3
asS'(BHU),'
p302
(lp303
g3
asS'College.'
p304
(lp305
g3
asS'position.[29]'
p306
(lp307
g3
asS'Institute.[13]'
p308
(lp309
g3
asS'(Professors'
p310
(lp311
g3
asS'villages'
p312
(lp313
g3
asS'serve'
p314
(lp315
g3
asS'took'
p316
(lp317
g3
asS'direct'
p318
(lp319
g3
asS'2008.'
p320
(lp321
g3
asS'2008,'
p322
(lp323
g3
asS'Colleges'
p324
(lp325
g3
asS'Councils'
p326
(lp327
g3
asS'classes'
p328
(lp329
g3
asS'1972'
p330
(lp331
g3
asS'well.'
p332
(lp333
g3
asS'seen'
p334
(lp335
g2
ag4
asS'(Hydraulics'
p336
(lp337
g3
asS'scriptures'
p338
(lp339
g4
asS'Java,'
p340
(lp341
g2
asS'-'
p342
(lp343
g3
ag4
asS'1961'
p344
(lp345
g3
asS'thorough'
p346
(lp347
g3
asS'localities'
p348
(lp349
g3
asS'recommended'
p350
(lp351
g3
asS'subjects'
p352
(lp353
g3
asS'Minister'
p354
(lp355
g3
asS'They'
p356
(lp357
g3
asS'letter'
p358
(lp359
g3
asS'retaining'
p360
(lp361
g3
asS'medical'
p362
(lp363
g3
asS'alumni'
p364
(lp365
g3
asS'competitors'
p366
(lp367
g3
asS'principle'
p368
(lp369
g3
asS'Institutes'
p370
(lp371
g3
asS'consumer'
p372
(lp373
g2
asS'Its'
p374
(lp375
g3
asS'came'
p376
(lp377
g3
asS'manifestation'
p378
(lp379
g4
asS'participate'
p380
(lp381
g3
asS'Resources'
p382
(lp383
g3
asS'(CAS)'
p384
(lp385
g3
asS'Photography'
p386
(lp387
g3
asS'Dance,'
p388
(lp389
g3
asS'Anveshan'
p390
(lp391
g3
asS'Events,'
p392
(lp393
g3
asS'Technology)'
p394
(lp395
g3
asS'Technology,'
p396
(lp397
g3
asS'solution.'
p398
(lp399
g2
asS'(MINMET).[4]'
p400
(lp401
g3
asS'established.[4]'
p402
(lp403
g3
asS'Pharmacognosy)'
p404
(lp405
g3
asS'earn'
p406
(lp407
g2
asS'fields'
p408
(lp409
g3
asS'Over'
p410
(lp411
g3
ag4
asS'(TBI)'
p412
(lp413
g3
asS'three-year'
p414
(lp415
g3
asS'architecture'
p416
(lp417
g4
asS'release'
p418
(lp419
g3
asS'them.'
p420
(lp421
g3
asS"temples',"
p422
(lp423
g4
asS'BENCO'
p424
(lp425
g3
asS'Hospital'
p426
(lp427
g3
asS'Performance'
p428
(lp429
g3
asS'Complex.'
p430
(lp431
g3
asS'said'
p432
(lp433
g4
asS'continually'
p434
(lp435
g4
asS'Water'
p436
(lp437
g3
asS'ex-officio'
p438
(lp439
g3
asS'Advanced'
p440
(lp441
g3
asS'we'
p442
(lp443
g3
asS'Central'
p444
(lp445
g3
asS'chodu'
p446
(lp447
g5
asS'Electronics,'
p448
(lp449
g3
asS'Electronics)'
p450
(lp451
g3
asS'viable.'
p452
(lp453
g3
asS'news'
p454
(lp455
g3
asS'1935,'
p456
(lp457
g3
asS'(b)'
p458
(lp459
g3
asS'Engg.,'
p460
(lp461
g3
asS'Dance'
p462
(lp463
g3
asS'country'
p464
(lp465
g3
asS'(1.6'
p466
(lp467
g3
asS'Computer'
p468
(lp469
g3
asS'games'
p470
(lp471
g3
asS'Undergraduate'
p472
(lp473
g3
asS'(including'
p474
(lp475
g2
asS'initiative'
p476
(lp477
g3
asS'boys,'
p478
(lp479
g3
asS'blending'
p480
(lp481
g3
asS'basis'
p482
(lp483
g3
asS'three'
p484
(lp485
g3
asS'been'
p486
(lp487
g3
ag4
asS'girls\x92'
p488
(lp489
g3
asS'Gymkhana.'
p490
(lp491
g3
asS'website'
p492
(lp493
g2
asS'life'
p494
(lp495
g3
asS'1982,'
p496
(lp497
g3
asS'fest'
p498
(lp499
g3
asS'Nominations'
p500
(lp501
g3
asS'Secretary'
p502
(lp503
g3
asS'tank'
p504
(lp505
g4
asS'near'
p506
(lp507
g4
asS'Other'
p508
(lp509
g4
asS'25,000+'
p510
(lp511
g3
asS'Sunderlal'
p512
(lp513
g3
asS'On'
p514
(lp515
g2
ag3
asS'is'
p516
(lp517
g2
ag3
ag4
ag5
asS'spectacle'
p518
(lp519
g4
asS'it'
p520
(lp521
g3
ag4
asS'entrepreneurs,'
p522
(lp523
g3
asS'Gautam'
p524
(lp525
g4
asS'experts'
p526
(lp527
g3
asS'in'
p528
(lp529
g2
ag3
ag4
asS'basketball,'
p530
(lp531
g3
asS'grown'
p532
(lp533
g3
asS'Internlelo,[21]'
p534
(lp535
g3
asS'centre.'
p536
(lp537
g4
asS'respectively.'
p538
(lp539
g3
asS'President'
p540
(lp541
g3
asS'program.'
p542
(lp543
g3
asS'several'
p544
(lp545
g3
ag4
asS'Institute'
p546
(lp547
g3
asS'Ph.D.'
p548
(lp549
g3
asS'published'
p550
(lp551
g3
asS'rail'
p552
(lp553
g4
asS'(B.Tech)'
p554
(lp555
g3
asS'Gymkhana'
p556
(lp557
g3
asS'Botany,'
p558
(lp559
g3
asS'programs'
p560
(lp561
g3
asS'Mine'
p562
(lp563
g3
asS'Malaviya'
p564
(lp565
g3
asS'academic'
p566
(lp567
g3
asS'academia'
p568
(lp569
g3
asS'the'
p570
(lp571
g2
ag3
ag4
asS'camps'
p572
(lp573
g3
asS'proposed'
p574
(lp575
g3
asS'Mysore'
p576
(lp577
g3
asS'semester.[15]'
p578
(lp579
g3
asS'assigned'
p580
(lp581
g3
asS'financially'
p582
(lp583
g3
asS'thanks'
p584
(lp585
g3
asS'Delhi.'
p586
(lp587
g3
asS'Ahilyabai'
p588
(lp589
g4
asS'had'
p590
(lp591
g3
asS'Framework'
p592
(lp593
g3
asS'spread'
p594
(lp595
g3
asS'has'
p596
(lp597
g2
ag3
ag4
asS'Apart'
p598
(lp599
g3
asS'cultural'
p600
(lp601
g3
asS'(IIT-JEE)'
p602
(lp603
g3
asS'M.Tech'
p604
(lp605
g3
asS'Metallurgical'
p606
(lp607
g3
asS'Robotics'
p608
(lp609
g3
asS'Engineering.'
p610
(lp611
g3
asS'Engineering,'
p612
(lp613
g3
asS'Engineering)'
p614
(lp615
g3
asS'Pharmacy'
p616
(lp617
g3
asS'born'
p618
(lp619
g4
asS'contests'
p620
(lp621
g2
asS'tutorial'
p622
(lp623
g3
asS'for'
p624
(lp625
g2
ag3
ag4
asS'creative'
p626
(lp627
g3
asS'ghats'
p628
(lp629
g4
asS'month.'
p630
(lp631
g3
asS'participation'
p632
(lp633
g3
asS'preside'
p634
(lp635
g3
asS'School'
p636
(lp637
g3
asS'Ceramic'
p638
(lp639
g3
asS'magazine'
p640
(lp641
g3
asS'connected'
p642
(lp643
g4
asS'Best'
p644
(lp645
g3
asS'raised'
p646
(lp647
g3
asS'(Mine'
p648
(lp649
g3
asS'formerly'
p650
(lp651
g3
asS'education.'
p652
(lp653
g3
asS'accomplishments'
p654
(lp655
g2
asS'photography,'
p656
(lp657
g3
asS'inter-disciplinary'
p658
(lp659
g3
asS'(c)'
p660
(lp661
g3
asS'was'
p662
(lp663
g3
ag4
asS'offer'
p664
(lp665
g3
asS'some'
p666
(lp667
g3
asS"Students'"
p668
(lp669
g3
asS'Biochemical'
p670
(lp671
g3
asS'Commission'
p672
(lp673
g3
asS'attached'
p674
(lp675
g3
asS'(Lit'
p676
(lp677
g3
asS'Engineering'
p678
(lp679
g3
asS'Sir'
p680
(lp681
g3
asS'classic'
p682
(lp683
g4
asS'Postgraduate'
p684
(lp685
g3
asS'generally'
p686
(lp687
g3
asS'clubs.'
p688
(lp689
g3
asS'Pradesh.'
p690
(lp691
g4
asS'shrine'
p692
(lp693
g4
asS'digital'
p694
(lp695
g3
asS'test'
p696
(lp697
g3
asS'Ceramics'
p698
(lp699
g3
asS'scored'
p700
(lp701
g2
asS'NIRF'
p702
(lp703
g3
asS'proportions.'
p704
(lp705
g3
asS'pro-nites'
p706
(lp707
g3
asS'time'
p708
(lp709
g2
asS'Students\x92'
p710
(lp711
g3
asS'Cine'
p712
(lp713
g3
asS'manages'
p714
(lp715
g3
asS'Artisan'
p716
(lp717
g3
asS'Shivam'
p718
(lp719
g5
asS'1944'
p720
(lp721
g3
asS'Entrepreneurship'
p722
(lp723
g3
asS'Academics'
p724
(lp725
g3
asS'Silicate'
p726
(lp727
g3
asS'diminish'
p728
(lp729
g4
asS'Tech'
p730
(lp731
g3
asS'Banaras'
p732
(lp733
g3
ag4
asS'Purandeswari.[9][10][11]'
p734
(lp735
g3
asS'Global'
p736
(lp737
g3
asS'leave'
p738
(lp739
g3
asS'solved'
p740
(lp741
g2
asS'dip'
p742
(lp743
g4
asS'M.Pharm'
p744
(lp745
g3
asS'spiritual'
p746
(lp747
g4
asS'temples'
p748
(lp749
g4
asS'(TECHNO)'
p750
(lp751
g3
asS'trend'
p752
(lp753
g2
asS'M.'
p754
(lp755
g3
asS'affiliation'
p756
(lp757
g3
asS'pillaging'
p758
(lp759
g4
asS'Automotive'
p760
(lp761
g3
asS'Notable'
p762
(lp763
g3
asS'Heat'
p764
(lp765
g3
asS'Bill'
p766
(lp767
g3
asS'Varanasi,'
p768
(lp769
g3
ag4
asS'DST'
p770
(lp771
g3
asS'Varanasi)'
p772
(lp773
g3
asS'address'
p774
(lp775
g3
asS'temple.'
p776
(lp777
g4
asS'Bioengineering'
p778
(lp779
g3
asS'along'
p780
(lp781
g3
ag4
asS'boy'
p782
(lp783
g5
asS'Computational'
p784
(lp785
g3
asS'Dean'
p786
(lp787
g3
asS'institute'
p788
(lp789
g3
asS'commonly'
p790
(lp791
g4
asS'Founded'
p792
(lp793
g3
asS'Joshi'
p794
(lp795
g3
asS'Anand'
p796
(lp797
g3
asS'Ganga'
p798
(lp799
g4
asS'Intricate'
p800
(lp801
g4
asS'Technology'
p802
(lp803
g3
asS'Association.'
p804
(lp805
g3
asS'industry.'
p806
(lp807
g3
asS'Technex'
p808
(lp809
g3
asS"It's"
p810
(lp811
g3
asS'Admission'
p812
(lp813
g3
asS'market'
p814
(lp815
g2
asS'wings,'
p816
(lp817
g3
asS'August'
p818
(lp819
g3
asS'working'
p820
(lp821
g3
asS'Libraries.'
p822
(lp823
g3
asS'F'
p824
(lp825
g3
asS'These'
p826
(lp827
g3
asS'devouts'
p828
(lp829
g4
asS'co-educational'
p830
(lp831
g3
asS'cases'
p832
(lp833
g3
asS"India's"
p834
(lp835
g3
asS'and,'
p836
(lp837
g4
asS'instructional'
p838
(lp839
g3
asS'film,'
p840
(lp841
g3
asS'can'
p842
(lp843
g2
ag3
ag4
asS'growing'
p844
(lp845
g2
asS'numbers'
p846
(lp847
g4
asS'dedicated'
p848
(lp849
g4
asS'Processing,'
p850
(lp851
g3
asS'Media'
p852
(lp853
g3
asS'M.Pharm)'
p854
(lp855
g3
asS'\x96'
p856
(lp857
g3
asS'M.Pharm.'
p858
(lp859
g3
asS'Committees)[6]'
p860
(lp861
g3
asS'performed'
p862
(lp863
g3
ag4
asS'council'
p864
(lp865
g3
asS'spanning'
p866
(lp867
g3
asS'HRD,'
p868
(lp869
g3
asS'divided'
p870
(lp871
g3
asS'1'
p872
(lp873
g3
asS'armies'
p874
(lp875
g4
asS'Show.'
p876
(lp877
g3
asS'may'
p878
(lp879
g3
asS'Jhankaar'
p880
(lp881
g3
asS'southern'
p882
(lp883
g3
asS'Hanuman'
p884
(lp885
g4
asS'produce'
p886
(lp887
g3
asS'such'
p888
(lp889
g3
asS'journals'
p890
(lp891
g3
asS'classroom'
p892
(lp893
g3
asS'6th'
p894
(lp895
g3
asS'Badminton'
p896
(lp897
g3
asS'Machines'
p898
(lp899
g3
asS'Act,'
p900
(lp901
g3
asS'development,'
p902
(lp903
g3
asS'serving'
p904
(lp905
g3
asS'mainly'
p906
(lp907
g3
asS'years'
p908
(lp909
g4
asS'course'
p910
(lp911
g3
asS'still'
p912
(lp913
g4
asS'Pharmacognosy'
p914
(lp915
g3
asS'worship'
p916
(lp917
g4
asS'constituted'
p918
(lp919
g3
asS'group'
p920
(lp921
g3
asS'internationally'
p922
(lp923
g3
asS'offers'
p924
(lp925
g3
asS'Vishwanath'
p926
(lp927
g4
asS'emailed'
p928
(lp929
g3
asS'thereby'
p930
(lp931
g3
asS'introduce'
p932
(lp933
g3
asS'year,'
p934
(lp935
g3
asS'half'
p936
(lp937
g3
asS'not'
p938
(lp939
g3
asS'HRD'
p940
(lp941
g3
asS'developments'
p942
(lp943
g3
asS'Weekend'
p944
(lp945
g3
asS'3-day'
p946
(lp947
g3
asS'Grants'
p948
(lp949
g3
asS'weighted'
p950
(lp951
g3
asS'2011[12]'
p952
(lp953
g3
asS'challenges'
p954
(lp955
g2
asS'Redressal'
p956
(lp957
g3
asS'year'
p958
(lp959
g3
asS'B.Pharm'
p960
(lp961
g3
asS'gamification'
p962
(lp963
g2
asS'(commonly'
p964
(lp965
g3
asS'after'
p966
(lp967
g3
asS'Theater'
p968
(lp969
g3
asS'theory'
p970
(lp971
g3
asS'million'
p972
(lp973
g2
asS'BENCO,'
p974
(lp975
g3
asS'challenge,'
p976
(lp977
g2
asS'sobriquets,'
p978
(lp979
g4
asS'Security'
p980
(lp981
g3
asS'ministry'
p982
(lp983
g3
asS'programming'
p984
(lp985
g2
asS'turn'
p986
(lp987
g4
asS'Maharaja'
p988
(lp989
g3
asS'place'
p990
(lp991
g3
asS'(IMD)'
p992
(lp993
g3
asS'Welfare'
p994
(lp995
g3
asS'first'
p996
(lp997
g3
asS'Humanities'
p998
(lp999
g3
asS'There'
p1000
(lp1001
g3
asS'one'
p1002
(lp1003
g2
ag3
ag4
asS'city'
p1004
(lp1005
g4
asS'B.Tech'
p1006
(lp1007
g3
asS'2'
p1008
(lp1009
g3
asS'PHP,'
p1010
(lp1011
g2
asS'(Microwave'
p1012
(lp1013
g3
asS'Technology.[18]'
p1014
(lp1015
g3
asS'that'
p1016
(lp1017
g2
ag3
ag4
asS'Intra-IIT'
p1018
(lp1019
g3
asS'specialists'
p1020
(lp1021
g3
asS'than'
p1022
(lp1023
g3
asS'History'
p1024
(lp1025
g3
asS'11'
p1026
(lp1027
g3
asS'13'
p1028
(lp1029
g3
asS'12'
p1030
(lp1031
g3
asS'14'
p1032
(lp1033
g3
asS'17'
p1034
(lp1035
g3
asS'seven-point'
p1036
(lp1037
g3
asS'19'
p1038
(lp1039
g3
asS'were'
p1040
(lp1041
g3
ag4
asS'wandering'
p1042
(lp1043
g4
asS'and'
p1044
(lp1045
g2
ag3
ag4
asS'(IT-BHU)'
p1046
(lp1047
g3
asS'Rankings'
p1048
(lp1049
g3
asS'Shiva'
p1050
(lp1051
g4
asS'BHU.'
p1052
(lp1053
g3
asS'Main'
p1054
(lp1055
g3
asS'conversion'
p1056
(lp1057
g3
asS'Wadiyar'
p1058
(lp1059
g3
asS'(IDD)'
p1060
(lp1061
g3
asS'sciences'
p1062
(lp1063
g3
asS'18th'
p1064
(lp1065
g4
asS'take'
p1066
(lp1067
g3
ag4
asS'online'
p1068
(lp1069
g2
asS'objective'
p1070
(lp1071
g3
asS'wanting'
p1072
(lp1073
g4
asS'(often'
p1074
(lp1075
g2
asS'multiple'
p1076
(lp1077
g2
asS'theatre'
p1078
(lp1079
g3
asS'India[25]'
p1080
(lp1081
g3
asS'D.'
p1082
(lp1083
g3
asS'sources,'
p1084
(lp1085
g3
asS'average'
p1086
(lp1087
g3
asS'(IBGAA)'
p1088
(lp1089
g3
asS'drive'
p1090
(lp1091
g2
asS"master's"
p1092
(lp1093
g3
asS'senior'
p1094
(lp1095
g3
asS'Web'
p1096
(lp1097
g3
asS'merit'
p1098
(lp1099
g3
asS'Graduate'
p1100
(lp1101
g3
asS'Systems'
p1102
(lp1103
g3
asS'Test'
p1104
(lp1105
g3
asS'unfortunately,'
p1106
(lp1107
g4
asS'only'
p1108
(lp1109
g3
asS'Applied'
p1110
(lp1111
g3
asS'ranking'
p1112
(lp1113
g3
asS'get'
p1114
(lp1115
g3
asS'Codefest'
p1116
(lp1117
g3
asS'Annual'
p1118
(lp1119
g3
asS'designated'
p1120
(lp1121
g3
asS'nearly'
p1122
(lp1123
g3
asS'secondary'
p1124
(lp1125
g3
asS'Nagara'
p1126
(lp1127
g4
asS'Kshitij'
p1128
(lp1129
g3
asS'programming[4]'
p1130
(lp1131
g2
asS'Drives,'
p1132
(lp1133
g3
asS'Chapters'
p1134
(lp1135
g3
asS'(Dance'
p1136
(lp1137
g3
asS'where'
p1138
(lp1139
g2
ag3
asS'elected'
p1140
(lp1141
g3
asS'Systems,'
p1142
(lp1143
g3
asS'Ghazni'
p1144
(lp1145
g4
asS'college'
p1146
(lp1147
g3
asS'wonder'
p1148
(lp1149
g4
asS'"CodeSprints")'
p1150
(lp1151
g2
asS'gazette'
p1152
(lp1153
g3
asS'affecting'
p1154
(lp1155
g3
asS'enjoys'
p1156
(lp1157
g4
asS'Goddess'
p1158
(lp1159
g4
asS'Placement'
p1160
(lp1161
g3
asS'25'
p1162
(lp1163
g4
asS'dome'
p1164
(lp1165
g4
asS'January'
p1166
(lp1167
g3
asS'Each'
p1168
(lp1169
g3
asS'March'
p1170
(lp1171
g3
asS'cities'
p1172
(lp1173
g4
asS'come'
p1174
(lp1175
g3
asS'concentrated'
p1176
(lp1177
g3
asS'Grievance'
p1178
(lp1179
g3
asS'many'
p1180
(lp1181
g3
asS'Metals'
p1182
(lp1183
g3
asS'Design,'
p1184
(lp1185
g3
asS'among'
p1186
(lp1187
g2
ag3
ag4
asS'Philosophy'
p1188
(lp1189
g3
asS'Varanasi'
p1190
(lp1191
g3
ag4
asS'robotics'
p1192
(lp1193
g3
asS'period'
p1194
(lp1195
g2
asS'Sciences'
p1196
(lp1197
g3
asS'exploit'
p1198
(lp1199
g3
asS'66'
p1200
(lp1201
g3
asS'Events'
p1202
(lp1203
g3
asS'arts'
p1204
(lp1205
g3
asS'Tech.'
p1206
(lp1207
g3
asS'Degree'
p1208
(lp1209
g3
asS'Geology'
p1210
(lp1211
g3
asS'west'
p1212
(lp1213
g4
asS'combined'
p1214
(lp1215
g3
asS'Bridgedots(www.bridgedots.com)'
p1216
(lp1217
g3
asS'these'
p1218
(lp1219
g3
ag4
asS'intimately'
p1220
(lp1221
g3
asS'Open'
p1222
(lp1223
g3
asS'Basketball'
p1224
(lp1225
g3
asS'coupled'
p1226
(lp1227
g3
asS'devotees'
p1228
(lp1229
g4
asS'Fachcha'
p1230
(lp1231
g3
asS'non-executive'
p1232
(lp1233
g3
asS'technology'
p1234
(lp1235
g2
asS'different'
p1236
(lp1237
g3
asS'media'
p1238
(lp1239
g3
asS'same'
p1240
(lp1241
g2
ag3
asS'semesters'
p1242
(lp1243
g3
asS'Blood'
p1244
(lp1245
g3
asS'Cell[edit]'
p1246
(lp1247
g3
asS'events'
p1248
(lp1249
g3
asS'extravaganza'
p1250
(lp1251
g3
asS'status'
p1252
(lp1253
g3
asS'(B.Pharm)'
p1254
(lp1255
g3
asS'events,'
p1256
(lp1257
g3
asS'Physics'
p1258
(lp1259
g3
asS'ID'
p1260
(lp1261
g3
asS'event.'
p1262
(lp1263
g2
asS'Is'
p1264
(lp1265
g4
asS'It'
p1266
(lp1267
g3
ag4
asS'(IIT).[7]'
p1268
(lp1269
g3
asS'In'
p1270
(lp1271
g2
ag3
asS'model'
p1272
(lp1273
g3
asS'consisted'
p1274
(lp1275
g3
asS'MINMET'
p1276
(lp1277
g3
asS'being'
p1278
(lp1279
g4
asS'when'
p1280
(lp1281
g2
ag3
asS'Examination'
p1282
(lp1283
g3
asS'representatives,'
p1284
(lp1285
g3
asS'Municipal'
p1286
(lp1287
g3
asS'possible.'
p1288
(lp1289
g3
asS'football,'
p1290
(lp1291
g3
asS'improvement'
p1292
(lp1293
g3
asS'4'
p1294
(lp1295
g3
asS'Mechanics'
p1296
(lp1297
g3
asS'around'
p1298
(lp1299
g3
ag4
asS'College'
p1300
(lp1301
g3
asS'COMET'
p1302
(lp1303
g3
asS'execution'
p1304
(lp1305
g2
asS'2015.[27]'
p1306
(lp1307
g3
asS'spiritualism.'
p1308
(lp1309
g4
asS'benefit'
p1310
(lp1311
g3
asS'output'
p1312
(lp1313
g2
asS'twelve'
p1314
(lp1315
g3
ag4
asS'Instrumentation,'
p1316
(lp1317
g3
asS'competition'
p1318
(lp1319
g2
asS'Master'
p1320
(lp1321
g3
asS'members.'
p1322
(lp1323
g3
asS'specified'
p1324
(lp1325
g3
asS'New'
p1326
(lp1327
g3
asS'Center.'
p1328
(lp1329
g3
asS'provided'
p1330
(lp1331
g3
asS'Government'
p1332
(lp1333
g3
asS'Earlier'
p1334
(lp1335
g3
asS'provides'
p1336
(lp1337
g3
asS'non-profit'
p1338
(lp1339
g3
asS'scientific'
p1340
(lp1341
g3
asS'business'
p1342
(lp1343
g3
asS'notable'
p1344
(lp1345
g3
asS'credits'
p1346
(lp1347
g3
asS'Pradesh,'
p1348
(lp1349
g3
asS'1935'
p1350
(lp1351
g3
asS'1934'
p1352
(lp1353
g3
asS'1939'
p1354
(lp1355
g3
asS"'the"
p1356
(lp1357
g4
asS'on'
p1358
(lp1359
g2
ag3
ag4
asS'central'
p1360
(lp1361
g3
asS'of'
p1362
(lp1363
g2
ag3
ag4
asS'practical'
p1364
(lp1365
g3
asS'community.'
p1366
(lp1367
g3
asS"HackerRank's"
p1368
(lp1369
g2
asS'Centers'
p1370
(lp1371
g3
asS'road'
p1372
(lp1373
g4
asS'Hostel'
p1374
(lp1375
g3
asS'Today[24]'
p1376
(lp1377
g3
asS'No'
p1378
(lp1379
g4
asS'your'
p1380
(lp1381
g3
asS'area'
p1382
(lp1383
g3
asS'qualifying'
p1384
(lp1385
g3
asS'there'
p1386
(lp1387
g3
asS'(1)'
p1388
(lp1389
g3
asS'Bachelor'
p1390
(lp1391
g3
asS'2003,'
p1392
(lp1393
g3
asS'Geology,'
p1394
(lp1395
g3
asS'hostels.'
p1396
(lp1397
g3
asS'75%'
p1398
(lp1399
g3
asS'promote'
p1400
(lp1401
g3
asS'with'
p1402
(lp1403
g3
ag4
asS'Society'
p1404
(lp1405
g3
asS"IIT's."
p1406
(lp1407
g3
asS'are:'
p1408
(lp1409
g3
asS'include:'
p1410
(lp1411
g3
asS'certain'
p1412
(lp1413
g3
asS'1920.'
p1414
(lp1415
g3
asS'general'
p1416
(lp1417
g3
asS'How'
p1418
(lp1419
g4
asS'e-magazine'
p1420
(lp1421
g3
asS'Production'
p1422
(lp1423
g3
asS'together'
p1424
(lp1425
g3
asS'duration.'
p1426
(lp1427
g3
asS'Mathematics'
p1428
(lp1429
g3
asS'An'
p1430
(lp1431
g3
asS'FIST,'
p1432
(lp1433
g3
asS'kabaddi.'
p1434
(lp1435
g3
asS'Reach'
p1436
(lp1437
g4
asS'Helping'
p1438
(lp1439
g3
asS'Buddhists'
p1440
(lp1441
g4
asS'you'
p1442
(lp1443
g3
asS'Chronicle'
p1444
(lp1445
g3
asS'separate'
p1446
(lp1447
g3
asS'students'
p1448
(lp1449
g3
asS'Courses'
p1450
(lp1451
g3
asS'evening,'
p1452
(lp1453
g4
asS'evening.'
p1454
(lp1455
g4
asS'Executive'
p1456
(lp1457
g3
asS'starting'
p1458
(lp1459
g3
asS'all'
p1460
(lp1461
g3
asS'Counsellor.'
p1462
(lp1463
g3
asS'religious'
p1464
(lp1465
g4
asS'June[14]'
p1466
(lp1467
g3
asS'Cricket'
p1468
(lp1469
g3
asS'opportunities'
p1470
(lp1471
g3
asS'to'
p1472
(lp1473
g2
ag3
ag4
asS'2012.[2][3]'
p1474
(lp1475
g3
asS'Krishnan'
p1476
(lp1477
g3
asS'activities'
p1478
(lp1479
g3
asS'Training'
p1480
(lp1481
g3
asS'very'
p1482
(lp1483
g4
asS'Microelectronics'
p1484
(lp1485
g3
asS'Incubator'
p1486
(lp1487
g3
asS'exhibition,'
p1488
(lp1489
g3
asS'college.'
p1490
(lp1491
g3
asS'large'
p1492
(lp1493
g3
ag4
asS'Course'
p1494
(lp1495
g3
asS'small'
p1496
(lp1497
g4
asS'programme'
p1498
(lp1499
g3
asS'Department.'
p1500
(lp1501
g3
asS'situated'
p1502
(lp1503
g4
asS'consumers'
p1504
(lp1505
g2
asS'witnessed'
p1506
(lp1507
g3
asS'(Extractive'
p1508
(lp1509
g3
asS'Cultural'
p1510
(lp1511
g3
asS'public'
p1512
(lp1513
g3
asS'5000'
p1514
(lp1515
g4
asS'HackerRank'
p1516
(lp1517
g2
asS'hours'
p1518
(lp1519
g3
asS'publishes'
p1520
(lp1521
g3
asS'Communication'
p1522
(lp1523
g3
asS'social'
p1524
(lp1525
g3
asS'Top'
p1526
(lp1527
g3
asS'texts'
p1528
(lp1529
g4
asS'Europe'
p1530
(lp1531
g3
asS'metallurgy'
p1532
(lp1533
g3
asS'Joint'
p1534
(lp1535
g3
asS'two'
p1536
(lp1537
g3
asS'6'
p1538
(lp1539
g3
asS'taken'
p1540
(lp1541
g3
asS'more'
p1542
(lp1543
g3
asS'company'
p1544
(lp1545
g2
asS'IIT,'
p1546
(lp1547
g3
asS'site'
p1548
(lp1549
g4
asS'known'
p1550
(lp1551
g3
ag4
asS'(BHU)'
p1552
(lp1553
g3
asS'Inter'
p1554
(lp1555
g3
asS'FMC'
p1556
(lp1557
g3
asS'Programme'
p1558
(lp1559
g3
asS'science'
p1560
(lp1561
g2
ag3
asS'(2)'
p1562
(lp1563
g3
asS'male'
p1564
(lp1565
g3
asS'specialized'
p1566
(lp1567
g3
asS'Incubation'
p1568
(lp1569
g3
asS'hours,'
p1570
(lp1571
g3
asS'respective'
p1572
(lp1573
g3
asS'Parliament'
p1574
(lp1575
g3
asS'acts'
p1576
(lp1577
g3
asS'Structural'
p1578
(lp1579
g3
asS'connectivity'
p1580
(lp1581
g3
asS'faculty'
p1582
(lp1583
g3
asS'a'
p1584
(lp1585
g2
ag3
ag4
ag5
asS'Mahabharata,'
p1586
(lp1587
g4
asS'Programmers'
p1588
(lp1589
g2
ag3
asS'fests'
p1590
(lp1591
g3
asS'pay'
p1592
(lp1593
g4
asS'banks'
p1594
(lp1595
g3
ag4
asS'music,'
p1596
(lp1597
g3
asS'Film'
p1598
(lp1599
g3
asS'adorned'
p1600
(lp1601
g4
asS'(B.Pharm).'
p1602
(lp1603
g3
asS'Sankat'
p1604
(lp1605
g4
asS'Spardha'
p1606
(lp1607
g3
asS'held'
p1608
(lp1609
g3
asS'paper'
p1610
(lp1611
g3
asS'through'
p1612
(lp1613
g3
asS'committee'
p1614
(lp1615
g3
asS'existence'
p1616
(lp1617
g3
asS'its'
p1618
(lp1619
g3
ag4
asS'24'
p1620
(lp1621
g3
asS'Ranking'
p1622
(lp1623
g3
asS'style'
p1624
(lp1625
g4
asS'20'
p1626
(lp1627
g3
asS'21'
p1628
(lp1629
g3
asS'programmers.'
p1630
(lp1631
g2
asS'course.'
p1632
(lp1633
g3
asS'Environment,'
p1634
(lp1635
g3
asS'(Theatre'
p1636
(lp1637
g3
asS'seeking'
p1638
(lp1639
g3
asS'Ganges.'
p1640
(lp1641
g3
asS'association'
p1642
(lp1643
g3
asS'(OLPE)'
p1644
(lp1645
g3
asS'founder,'
p1646
(lp1647
g3
asS'holiest'
p1648
(lp1649
g4
asS'courses'
p1650
(lp1651
g3
asS'Council'
p1652
(lp1653
g3
asS'accommodated'
p1654
(lp1655
g3
asS'athletics'
p1656
(lp1657
g3
asS'referred'
p1658
(lp1659
g2
ag4
asS'house'
p1660
(lp1661
g3
asS'house,'
p1662
(lp1663
g3
asS'Sports'
p1664
(lp1665
g3
asS'namely,'
p1666
(lp1667
g3
asS'organised'
p1668
(lp1669
g3
asS'research'
p1670
(lp1671
g3
asS'health'
p1672
(lp1673
g3
asS'Astronomy'
p1674
(lp1675
g3
asS'Ceramics.'
p1676
(lp1677
g3
asS'found'
p1678
(lp1679
g4
asS'1968,'
p1680
(lp1681
g3
asS'1968.'
p1682
(lp1683
g3
asS'members'
p1684
(lp1685
g3
asS'bring'
p1686
(lp1687
g3
asS'(Advanced)'
p1688
(lp1689
g3
asS'conducted'
p1690
(lp1691
g3
asS'Bajardiha'
p1692
(lp1693
g3
asS'leading'
p1694
(lp1695
g3
asS'Linguistics'
p1696
(lp1697
g3
asS'number'
p1698
(lp1699
g3
ag4
asS'Indian'
p1700
(lp1701
g3
ag4
asS'incubated'
p1702
(lp1703
g3
asS'Board,'
p1704
(lp1705
g3
asS'Transportation'
p1706
(lp1707
g3
asS'guest'
p1708
(lp1709
g3
asS'points)'
p1710
(lp1711
g3
asS'Started'
p1712
(lp1713
g3
asS'twenty'
p1714
(lp1715
g3
asS'Environmental'
p1716
(lp1717
g3
asS'passed'
p1718
(lp1719
g3
asS'hundred'
p1720
(lp1721
g4
asS'immediate'
p1722
(lp1723
g3
asS'1919'
p1724
(lp1725
g3
asS'India.'
p1726
(lp1727
g3
ag4
asS'2012,'
p1728
(lp1729
g3
asS'(GATE)'
p1730
(lp1731
g3
asS'programme[17]'
p1732
(lp1733
g3
asS'Vishwanath,'
p1734
(lp1735
g4
asS'under-privileged'
p1736
(lp1737
g3
asS'declare'
p1738
(lp1739
g3
asS'Parliamentary'
p1740
(lp1741
g3
asS'Affairs'
p1742
(lp1743
g3
asS'then.[5]'
p1744
(lp1745
g3
asS'Sociology'
p1746
(lp1747
g3
asS'categorized'
p1748
(lp1749
g3
asS'nights'
p1750
(lp1751
g3
asS'built'
p1752
(lp1753
g3
ag4
asS'Power'
p1754
(lp1755
g3
asS'depending'
p1756
(lp1757
g3
asS'Club'
p1758
(lp1759
g3
asS'self'
p1760
(lp1761
g3
asS'also'
p1762
(lp1763
g2
ag3
ag4
asS'Spirit'
p1764
(lp1765
g3
asS'most'
p1766
(lp1767
g4
asS'sponsored'
p1768
(lp1769
g3
asS'The'
p1770
(lp1771
g3
ag4
asS'Wi-Fi'
p1772
(lp1773
g3
asS'approved'
p1774
(lp1775
g3
asS'Institutional'
p1776
(lp1777
g3
asS'sometimes'
p1778
(lp1779
g4
asS'km'
p1780
(lp1781
g4
asS'scattered'
p1782
(lp1783
g4
asS'businesses'
p1784
(lp1785
g2
asS'Mahmud'
p1786
(lp1787
g4
asS'MHRD'
p1788
(lp1789
g3
asS'Technology.[16]'
p1790
(lp1791
g3
asS'Keramos'
p1792
(lp1793
g3
asS'northern'
p1794
(lp1795
g4
asS'Aero-modelling'
p1796
(lp1797
g3
asS'Muslim'
p1798
(lp1799
g4
asS'Temple:'
p1800
(lp1801
g4
asS'failed'
p1802
(lp1803
g4
asS'merged'
p1804
(lp1805
g3
asS'While'
p1806
(lp1807
g3
asS'during'
p1808
(lp1809
g2
asS'Aptitude'
p1810
(lp1811
g3
asS'activity'
p1812
(lp1813
g4
asS'river'
p1814
(lp1815
g4
asS'seventeen'
p1816
(lp1817
g3
asS'set'
p1818
(lp1819
g2
asS'For'
p1820
(lp1821
g3
asS'achieved'
p1822
(lp1823
g3
asS'incubator,'
p1824
(lp1825
g3
asS'Metallurgy'
p1826
(lp1827
g3
asS'Enquiries'
p1828
(lp1829
g3
asS'individual'
p1830
(lp1831
g2
asS'are'
p1832
(lp1833
g2
ag3
asS'close'
p1834
(lp1835
g3
asS'libraries'
p1836
(lp1837
g3
asS'years,'
p1838
(lp1839
g3
ag4
asS'numerous'
p1840
(lp1841
g3
asS'Varanasi.'
p1842
(lp1843
g4
asS'available'
p1844
(lp1845
g3
asS'Chemistry,'
p1846
(lp1847
g3
asS'ranked'
p1848
(lp1849
g2
ag3
asS'1921.'
p1850
(lp1851
g3
asS'both'
p1852
(lp1853
g2
ag3
asS'desired'
p1854
(lp1855
g3
asS'annual'
p1856
(lp1857
g3
asS'Disciplinary'
p1858
(lp1859
g3
asS'became'
p1860
(lp1861
g3
asS'however,'
p1862
(lp1863
g4
asS'finds'
p1864
(lp1865
g4
asS'headed'
p1866
(lp1867
g3
asS'English'
p1868
(lp1869
g3
asS'community'
p1870
(lp1871
g2
ag3
asS'badminton'
p1872
(lp1873
g3
asS'Online'
p1874
(lp1875
g3
asS'temple,'
p1876
(lp1877
g4
asS'1985.'
p1878
(lp1879
g3
asS'monthly'
p1880
(lp1881
g3
asS'overlook'
p1882
(lp1883
g3
asS'political'
p1884
(lp1885
g3
asS'treatments,'
p1886
(lp1887
g3
asS'meeting'
p1888
(lp1889
g3
asS'Care'
p1890
(lp1891
g3
asS'Academic'
p1892
(lp1893
g3
asS'Manthan'
p1894
(lp1895
g3
asS'bill'
p1896
(lp1897
g3
asS'elections'
p1898
(lp1899
g3
asS'evaluated'
p1900
(lp1901
g3
asS'expressly'
p1902
(lp1903
g3
asS'while'
p1904
(lp1905
g3
asS'Animation'
p1906
(lp1907
g3
asS'replaced'
p1908
(lp1909
g3
asS'larger'
p1910
(lp1911
g3
asS'century'
p1912
(lp1913
g4
asS'use.'
p1914
(lp1915
g2
asS'frantic'
p1916
(lp1917
g4
asS'2015.'
p1918
(lp1919
g3
asS'government'
p1920
(lp1921
g3
asS'Innovation,'
p1922
(lp1923
g3
asS'Council.'
p1924
(lp1925
g3
asS'Council,'
p1926
(lp1927
g3
asS'higher'
p1928
(lp1929
g3
asS'literature'
p1930
(lp1931
g3
asS'purpose'
p1932
(lp1933
g3
asS'recent'
p1934
(lp1935
g3
asS'Almost'
p1936
(lp1937
g3
asS'makes'
p1938
(lp1939
g4
asS'organization'
p1940
(lp1941
g3
asS'Programmes'
p1942
(lp1943
g3
asS'stating'
p1944
(lp1945
g3
asS"Temple'."
p1946
(lp1947
g4
asS'1780'
p1948
(lp1949
g4
asS'competitive'
p1950
(lp1951
g2
asS'Trauma'
p1952
(lp1953
g3
asS'startups'
p1954
(lp1955
g3
asS'Departmental'
p1956
(lp1957
g3
asS'informal'
p1958
(lp1959
g3
asS'admission'
p1960
(lp1961
g3
asS'Football'
p1962
(lp1963
g3
asS'exclusively'
p1964
(lp1965
g3
asS'Life[edit]'
p1966
(lp1967
g3
asS'administrative'
p1968
(lp1969
g3
asS'Open,'
p1970
(lp1971
g3
asS'km2)'
p1972
(lp1973
g3
asS'matters'
p1974
(lp1975
g3
asS'projects'
p1976
(lp1977
g3
asS'Physics:'
p1978
(lp1979
g3
asS'submission'
p1980
(lp1981
g2
asS'separately'
p1982
(lp1983
g3
asS'Physics,'
p1984
(lp1985
g3
asS'Learning'
p1986
(lp1987
g3
asS'popular'
p1988
(lp1989
g4
asS'Fine'
p1990
(lp1991
g3
asS'Pharmaceutical'
p1992
(lp1993
g3
asS'Management'
p1994
(lp1995
g3
asS'volleyball,'
p1996
(lp1997
g3
asS'magnificent'
p1998
(lp1999
g4
asS'back'
p2000
(lp2001
g3
asS'MCII'
p2002
(lp2003
g3
asS'and/or'
p2004
(lp2005
g3
asS'collaboratively.'
p2006
(lp2007
g3
asS'Dataquest[26]'
p2008
(lp2009
g3
asS'competitions'
p2010
(lp2011
g3
asS'religion'
p2012
(lp2013
g4
asS'dating'
p2014
(lp2015
g3
asS'temple'
p2016
(lp2017
g4
asS'be'
p2018
(lp2019
g2
ag3
ag4
asS'Economics'
p2020
(lp2021
g3
asS'forming'
p2022
(lp2023
g3
asS'percentile'
p2024
(lp2025
g3
asS'1919.'
p2026
(lp2027
g3
asS'by'
p2028
(lp2029
g2
ag3
ag4
asS'faith'
p2030
(lp2031
g4
asS'Hindus,'
p2032
(lp2033
g4
asS'Committee'
p2034
(lp2035
g3
asS'tenants'
p2036
(lp2037
g3
asS'plethora'
p2038
(lp2039
g3
asS'into'
p2040
(lp2041
g3
ag4
asS'within'
p2042
(lp2043
g2
ag3
asS'country."[8]'
p2044
(lp2045
g3
asS'aarti'
p2046
(lp2047
g4
asS'Malaviya.'
p2048
(lp2049
g3
asS'sports'
p2050
(lp2051
g3
asS'programmes[edit]'
p2052
(lp2053
g3
asS'span'
p2054
(lp2055
g2
asS'long'
p2056
(lp2057
g3
ag4
asS'consultation'
p2058
(lp2059
g3
asS':'
p2060
(lp2061
g3
asS'sections'
p2062
(lp2063
g3
asS'poster'
p2064
(lp2065
g3
asS'link'
p2066
(lp2067
g3
asS'consist'
p2068
(lp2069
g3
asS'users.'
p2070
(lp2071
g2
asS'up'
p2072
(lp2073
g3
asS'foresight'
p2074
(lp2075
g3
asS'hockey,'
p2076
(lp2077
g3
asS'etc.'
p2078
(lp2079
g3
asS'called'
p2080
(lp2081
g3
asS'side,'
p2082
(lp2083
g2
asS'presided'
p2084
(lp2085
g4
asS'globally'
p2086
(lp2087
g2
asS'engineering'
p2088
(lp2089
g3
asS'May'
p2090
(lp2091
g3
asS'A*'
p2092
(lp2093
g3
asS'(Power'
p2094
(lp2095
g3
asS'application'
p2096
(lp2097
g3
asS'electrical'
p2098
(lp2099
g3
asS'Student'
p2100
(lp2101
g3
asS'department'
p2102
(lp2103
g3
asS'footfall'
p2104
(lp2105
g3
asS'users'
p2106
(lp2107
g2
asS'problems'
p2108
(lp2109
g3
asS'astronomy,'
p2110
(lp2111
g3
asS'2014.'
p2112
(lp2113
g3
asS'ago'
p2114
(lp2115
g4
asS'Udyam'
p2116
(lp2117
g3
asS'departments'
p2118
(lp2119
g3
asS'consumes'
p2120
(lp2121
g3
asS'IT-BHU'
p2122
(lp2123
g3
asS'issued'
p2124
(lp2125
g3
asS'(Pharmaceutics,'
p2126
(lp2127
g3
asS'Department'
p2128
(lp2129
g3
asS'Integrated'
p2130
(lp2131
g3
asS'Business'
p2132
(lp2133
g3
asS'languages'
p2134
(lp2135
g2
asS'Glass'
p2136
(lp2137
g3
asS'Utkarsh'
p2138
(lp2139
g3
asS'Chemistry.[4]'
p2140
(lp2141
g3
asS'include'
p2142
(lp2143
g3
asS'account'
p2144
(lp2145
g3
asS'Rigveda'
p2146
(lp2147
g4
asS'categories'
p2148
(lp2149
g3
asS'entire'
p2150
(lp2151
g3
asS'University.'
p2152
(lp2153
g3
asS'University,'
p2154
(lp2155
g3
asS'Metallurgy,'
p2156
(lp2157
g3
asS'(Advanced).[19]'
p2158
(lp2159
g3
asS'integrating'
p2160
(lp2161
g3
asS'dealt'
p2162
(lp2163
g3
asS'encloses'
p2164
(lp2165
g4
asS'State'
p2166
(lp2167
g3
asS'domains.'
p2168
(lp2169
g2
asS'Durga'
p2170
(lp2171
g4
asS'Python,'
p2172
(lp2173
g2
asS'Entrance'
p2174
(lp2175
g3
asS'access'
p2176
(lp2177
g3
asS'Rhetorica'
p2178
(lp2179
g3
asS'firms'
p2180
(lp2181
g3
asS'body'
p2182
(lp2183
g3
asS'focuses'
p2184
(lp2185
g2
asS'degree'
p2186
(lp2187
g3
asS'groove.'
p2188
(lp2189
g3
asS'commercial'
p2190
(lp2191
g3
asS'jointly'
p2192
(lp2193
g3
asS'believed'
p2194
(lp2195
g4
asS'Green'
p2196
(lp2197
g3
asS'convert'
p2198
(lp2199
g3
asS'formalizing'
p2200
(lp2201
g3
asS'technical'
p2202
(lp2203
g3
asS'30'
p2204
(lp2205
g3
asS'state/UT.'
p2206
(lp2207
g3
asS'Organizing'
p2208
(lp2209
g3
asS'named'
p2210
(lp2211
g3
asS'Hindu'
p2212
(lp2213
g3
ag4
asS'Rock'
p2214
(lp2215
g3
asS'extravagance'
p2216
(lp2217
g3
asS'standing'
p2218
(lp2219
g3
asS'from'
p2220
(lp2221
g3
ag4
asS'&'
p2222
(lp2223
g3
asS'cricket,'
p2224
(lp2225
g3
asS'few'
p2226
(lp2227
g4
asS'MCIIE'
p2228
(lp2229
g3
asS'convocation,'
p2230
(lp2231
g3
asS'Rajya'
p2232
(lp2233
g3
asS'parliament'
p2234
(lp2235
g3
asS'festival.'
p2236
(lp2237
g3
asS'started'
p2238
(lp2239
g3
asS'carvings'
p2240
(lp2241
g4
asS'throng'
p2242
(lp2243
g4
asS'Volleyball'
p2244
(lp2245
g3
asS"Today's"
p2246
(lp2247
g3
asS'JEE'
p2248
(lp2249
g3
asS'appointed'
p2250
(lp2251
g3
asS'Madan'
p2252
(lp2253
g3
asS'Ramayana,'
p2254
(lp2255
g4
asS'Jains.'
p2256
(lp2257
g4
asS'this'
p2258
(lp2259
g3
ag4
asS'Library'
p2260
(lp2261
g3
asS'meet'
p2262
(lp2263
g3
asS'1,300'
p2264
(lp2265
g3
asS'kund,'
p2266
(lp2267
g4
asS'patron'
p2268
(lp2269
g3
asS'recognized'
p2270
(lp2271
g3
asS'amend'
p2272
(lp2273
g3
asS'Pharmacology'
p2274
(lp2275
g3
asS'1923,'
p2276
(lp2277
g3
asS'inaugural'
p2278
(lp2279
g3
asS"Dataquest's"
p2280
(lp2281
g3
asS'located'
p2282
(lp2283
g3
ag4
asS'Admission[edit]'
p2284
(lp2285
g3
asS'establishment'
p2286
(lp2287
g3
asS'Mohammad'
p2288
(lp2289
g4
asS'Kashiyatra'
p2290
(lp2291
g3
asS'Technical'
p2292
(lp2293
g3
asS'waters'
p2294
(lp2295
g4
asS'Alloy'
p2296
(lp2297
g3
asS'ties'
p2298
(lp2299
g3
asS'convocation'
p2300
(lp2301
g3
asS'Diaries'
p2302
(lp2303
g3
asS'revered'
p2304
(lp2305
g4
asS'or'
p2306
(lp2307
g3
ag4
asS'subsequently'
p2308
(lp2309
g3
asS'BHU'
p2310
(lp2311
g3
asS'secured'
p2312
(lp2313
g3
asS"learning'."
p2314
(lp2315
g4
asS'Buddha'
p2316
(lp2317
g4
asS'alumni,'
p2318
(lp2319
g3
asS'alumni.'
p2320
(lp2321
g3
asS'badges'
p2322
(lp2323
g2
asS'Dramatics,'
p2324
(lp2325
g3
asS'Emergency'
p2326
(lp2327
g3
asS'Event),'
p2328
(lp2329
g3
asS'acres'
p2330
(lp2331
g3
asS'Director'
p2332
(lp2333
g3
asS'2015'
p2334
(lp2335
g3
asS'2016'
p2336
(lp2337
g3
asS'2011'
p2338
(lp2339
g3
asS'2010'
p2340
(lp2341
g3
asS'2013'
p2342
(lp2343
g3
asS'2012'
p2344
(lp2345
g3
asS'mention'
p2346
(lp2347
g4
asS'Shilp'
p2348
(lp2349
g3
asS'consumer-side'
p2350
(lp2351
g2
asS'Mochan'
p2352
(lp2353
g4
asS'journals.'
p2354
(lp2355
g3
asS'day'
p2356
(lp2357
g3
asS'profound'
p2358
(lp2359
g4
asS'challenges,'
p2360
(lp2361
g2
asS'university'
p2362
(lp2363
g3
asS'Arts'
p2364
(lp2365
g3
asS'From'
p2366
(lp2367
g3
asS'books'
p2368
(lp2369
g3
asS'Biomedical'
p2370
(lp2371
g3
asS'80'
p2372
(lp2373
g3
asS'tenth'
p2374
(lp2375
g3
asS'witness'
p2376
(lp2377
g4
asS'"In'
p2378
(lp2379
g3
asS'Material'
p2380
(lp2381
g3
asS'lecture'
p2382
(lp2383
g3
asS'achievements'
p2384
(lp2385
g3
asS'This'
p2386
(lp2387
g3
ag4
asS'Sparsh'
p2388
(lp2389
g3
asS'Geotechnical'
p2390
(lp2391
g3
asS'Spandan'
p2392
(lp2393
g3
asS'Krishnaraja'
p2394
(lp2395
g3
asS'Hanuman.'
p2396
(lp2397
g4
asS'tenant'
p2398
(lp2399
g3
asS'Outlook'
p2400
(lp2401
g3
asS'Udbhav'
p2402
(lp2403
g3
asS'deprived'
p2404
(lp2405
g3
asS'could'
p2406
(lp2407
g3
asS'tennis,'
p2408
(lp2409
g3
asS'Computing.'
p2410
(lp2411
g3
asS'4th'
p2412
(lp2413
g3
asS'tier'
p2414
(lp2415
g3
asS'Electrical'
p2416
(lp2417
g3
asS'Significance'
p2418
(lp2419
g4
asS'ancient'
p2420
(lp2421
g4
asS'North'
p2422
(lp2423
g3
asS'Centre'
p2424
(lp2425
g3
asS'festival'
p2426
(lp2427
g3
asS'system'
p2428
(lp2429
g3
asS'their'
p2430
(lp2431
g2
ag3
asS'attack'
p2432
(lp2433
g4
asS'introduced.'
p2434
(lp2435
g3
asS'Association'
p2436
(lp2437
g3
asS'postgraduate'
p2438
(lp2439
g3
asS'Alumni'
p2440
(lp2441
g3
asS'lists'
p2442
(lp2443
g3
asS'B.Tech,'
p2444
(lp2445
g3
asS'(B.Tech'
p2446
(lp2447
g3
asS'constituent'
p2448
(lp2449
g3
asS'institution'
p2450
(lp2451
g3
asS'articles,'
p2452
(lp2453
g3
asS'M.Tech,'
p2454
(lp2455
g3
asS'M.Tech.'
p2456
(lp2457
g3
asS'M.Tech)'
p2458
(lp2459
g3
asS'Sabha'
p2460
(lp2461
g3
asS'therefore,'
p2462
(lp2463
g4
asS'KY'
p2464
(lp2465
g3
asS'student-run,'
p2466
(lp2467
g3
asS'Ganga.'
p2468
(lp2469
g4
asS'Workshop'
p2470
(lp2471
g3
asS'have'
p2472
(lp2473
g3
ag4
asS'Zoology,'
p2474
(lp2475
g3
asS'need'
p2476
(lp2477
g3
asS'linked'
p2478
(lp2479
g3
asS'Development'
p2480
(lp2481
g3
asS'Activities'
p2482
(lp2483
g3
asS'contact'
p2484
(lp2485
g3
asS'which'
p2486
(lp2487
g3
asS'campus.'
p2488
(lp2489
g3
asS'campus,'
p2490
(lp2491
g3
asS'accuracy'
p2492
(lp2493
g2
asS'lectures'
p2494
(lp2495
g3
asS'Departments[edit]'
p2496
(lp2497
g3
asS'on-campus'
p2498
(lp2499
g3
asS'centre'
p2500
(lp2501
g4
asS'who'
p2502
(lp2503
g3
ag4
asS'Games'
p2504
(lp2505
g3
asS'amongst'
p2506
(lp2507
g4
asS'Rural'
p2508
(lp2509
g3
asS'Holkar'
p2510
(lp2511
g4
asS'Some'
p2512
(lp2513
g3
asS'(from'
p2514
(lp2515
g3
asS'looked'
p2516
(lp2517
g3
asS'mechanical'
p2518
(lp2519
g3
asS'text'
p2520
(lp2521
g3
asS'supported'
p2522
(lp2523
g3
asS'Chemical'
p2524
(lp2525
g3
asS'Planning)'
p2526
(lp2527
g3
asS'based'
p2528
(lp2529
g2
ag3
asS'knowledge'
p2530
(lp2531
g3
asS'earned'
p2532
(lp2533
g3
ag4
asS'.But'
p2534
(lp2535
g3
asS'various'
p2536
(lp2537
g3
asS'leaderboard'
p2538
(lp2539
g2
asS'Industrial'
p2540
(lp2541
g3
asS'BHU-PMT'
p2542
(lp2543
g3
asS'2016.'
p2544
(lp2545
g3
asS'Mechanical'
p2546
(lp2547
g3
asS'River'
p2548
(lp2549
g3
asS'committees'
p2550
(lp2551
g3
asS'married'
p2552
(lp2553
g3
asS'(5.3'
p2554
(lp2555
g3
asS'comprising'
p2556
(lp2557
g3
asS'view'
p2558
(lp2559
g4
asS'(Mains)'
p2560
(lp2561
g3
asS'edition'
p2562
(lp2563
g3
asS'computer'
p2564
(lp2565
g2
asS'Various'
p2566
(lp2567
g3
asS'couples.'
p2568
(lp2569
g3
asS'record'
p2570
(lp2571
g3
asS'undertaken:'
p2572
(lp2573
g3
asS'presentation,'
p2574
(lp2575
g3
asS'state'
p2576
(lp2577
g4
asS'PG'
p2578
(lp2579
g3
asS'July'
p2580
(lp2581
g3
asS'obeisance'
p2582
(lp2583
g4
asS'exam'
p2584
(lp2585
g3
asS'opening'
p2586
(lp2587
g3
asS'courtyard'
p2588
(lp2589
g4
asS'approval'
p2590
(lp2591
g3
asS'taking'
p2592
(lp2593
g3
asS'Design'
p2594
(lp2595
g3
asS'schools.'
p2596
(lp2597
g3
asS'Campus'
p2598
(lp2599
g3
asS'Durga.'
p2600
(lp2601
g4
asS'Lok'
p2602
(lp2603
g3
asS'subscribe'
p2604
(lp2605
g3
asS'Music'
p2606
(lp2607
g3
asS'11,000'
p2608
(lp2609
g3
asS'undergraduate'
p2610
(lp2611
g3
asS'addition'
p2612
(lp2613
g2
ag3
ag4
asS'dazzling'
p2614
(lp2615
g3
asS'proposal'
p2616
(lp2617
g3
asS'IITBHU'
p2618
(lp2619
g3
asS'environment,'
p2620
(lp2621
g3
asS'Music,'
p2622
(lp2623
g3
asS'an'
p2624
(lp2625
g2
ag3
asS'present'
p2626
(lp2627
g3
asS'airport,'
p2628
(lp2629
g4
asS'Quizzes,'
p2630
(lp2631
g3
asS'as'
p2632
(lp2633
g2
ag3
ag4
asS'General'
p2634
(lp2635
g3
asS'will'
p2636
(lp2637
g3
asS'entrepreneurial'
p2638
(lp2639
g3
asS'at'
p2640
(lp2641
g2
ag3
asS'(IT-BHU).'
p2642
(lp2643
g3
asS'architecture.'
p2644
(lp2645
g4
asS'recognized.'
p2646
(lp2647
g3
asS'thus'
p2648
(lp2649
g3
asS'Vice-President.'
p2650
(lp2651
g3
asS'PhD.'
p2652
(lp2653
g3
asS'Literary'
p2654
(lp2655
g3
asS'terrorist'
p2656
(lp2657
g4
asS'perhaps'
p2658
(lp2659
g4
asS'campus'
p2660
(lp2661
g3
asS'member'
p2662
(lp2663
g3
asS'awakening.'
p2664
(lp2665
g4
asS'largest'
p2666
(lp2667
g3
asS'of:'
p2668
(lp2669
g3
asS"'Monkey"
p2670
(lp2671
g4
asS'Resource'
p2672
(lp2673
g3
asS"lights'"
p2674
(lp2675
g4
asS'Medical'
p2676
(lp2677
g3
asS'upon'
p2678
(lp2679
g3
asS'Mining'
p2680
(lp2681
g3
asS'1972,'
p2682
(lp2683
g3
asS'student'
p2684
(lp2685
g3
asS'scholars'
p2686
(lp2687
g3
asS'well'
p2688
(lp2689
g3
ag4
asS'part.'
p2690
(lp2691
g3
asS'Ghori.'
p2692
(lp2693
g4
asS'position'
p2694
(lp2695
g4
asS'sourced'
p2696
(lp2697
g3
asS'executive'
p2698
(lp2699
g3
asS'Achievements'
p2700
(lp2701
g3
asS'temples,'
p2702
(lp2703
g4
asS'residential'
p2704
(lp2705
g3
asS'point'
p2706
(lp2707
g3
asS'Club,'
p2708
(lp2709
g3
asS'book'
p2710
(lp2711
g3
asS'By'
p2712
(lp2713
g4
asS'Programs'
p2714
(lp2715
g3
asS'1,00,000'
p2716
(lp2717
g3
asS'press'
p2718
(lp2719
g3
asS'Engineers'
p2720
(lp2721
g3
asS'(BENCO)'
p2722
(lp2723
g3
asS'Fashion'
p2724
(lp2725
g3
asS'like'
p2726
(lp2727
g3
ag4
asS'alternatively'
p2728
(lp2729
g3
asS'(M.Tech)'
p2730
(lp2731
g3
asS'hosts'
p2732
(lp2733
g2
asS'become'
p2734
(lp2735
g3
asS'because'
p2736
(lp2737
g3
asS'library'
p2738
(lp2739
g3
asS'Quiz'
p2740
(lp2741
g3
asS'past.'
p2742
(lp2743
g3
asS'home'
p2744
(lp2745
g4
asS'supportive'
p2746
(lp2747
g3
asS'Pt.'
p2748
(lp2749
g3
asS'DST,'
p2750
(lp2751
g3
asS'leader'
p2752
(lp2753
g2
asS'coders'
p2754
(lp2755
g2
asS'1932'
p2756
(lp2757
g3
asS'Materials'
p2758
(lp2759
g3
asS'Chemistry'
p2760
(lp2761
g3
asS'world.'
p2762
(lp2763
g3
ag4
asS'about'
p2764
(lp2765
g4
asS'boards'
p2766
(lp2767
g3
asS'3500'
p2768
(lp2769
g3
asS'Vice-President'
p2770
(lp2771
g3
asS'US'
p2772
(lp2773
g3
asS'Students'
p2774
(lp2775
g3
asS'UG'
p2776
(lp2777
g3
asS'introduced'
p2778
(lp2779
g3
asS'Pharmaceutics'
p2780
(lp2781
g3
asS'software'
p2782
(lp2783
g3
asS'own'
p2784
(lp2785
g3
ag4
asS'(First'
p2786
(lp2787
g3
asS'submits'
p2788
(lp2789
g2
asS'buildings.[4]'
p2790
(lp2791
g3
asS'IDD'
p2792
(lp2793
g3
asS'.'
p2794
(lp2795
g5
asS'Awareness'
p2796
(lp2797
g3
asS'networking'
p2798
(lp2799
g3
asS'Finance'
p2800
(lp2801
g3
asS'Assistant'
p2802
(lp2803
g3
asS'housing'
p2804
(lp2805
g3
asS'engineering,'
p2806
(lp2807
g3
asS'awarded'
p2808
(lp2809
g3
asS'upliftment'
p2810
(lp2811
g3
asS'biggest'
p2812
(lp2813
g3
asS'Science'
p2814
(lp2815
g3
asS'but'
p2816
(lp2817
g3
ag4
asS'Limbdi'
p2818
(lp2819
g3
asS'Botany'
p2820
(lp2821
g3
asS'made'
p2822
(lp2823
g3
asS'students,'
p2824
(lp2825
g3
asS'places'
p2826
(lp2827
g4
asS'official'
p2828
(lp2829
g3
asS'this,'
p2830
(lp2831
g3
asS'signed'
p2832
(lp2833
g3
asS'placed'
p2834
(lp2835
g3
asS'converted'
p2836
(lp2837
g3
asS'piece'
p2838
(lp2839
g4
asS'Exam.'
p2840
(lp2841
g3
asS'Electronics'
p2842
(lp2843
g3
asS'programmer'
p2844
(lp2845
g2
asS'renowned'
p2846
(lp2847
g3
asS'variety'
p2848
(lp2849
g2
asS'other'
p2850
(lp2851
g3
ag4
asS'Five'
p2852
(lp2853
g3
asS'branch'
p2854
(lp2855
g3
asS'Pharmaceutics.'
p2856
(lp2857
g3
asS'Pharmaceutics,'
p2858
(lp2859
g3
asS'conclusion'
p2860
(lp2861
g2
asS'February'
p2862
(lp2863
g3
asS'April'
p2864
(lp2865
g3
asS'Act'
p2866
(lp2867
g3
asS"'city"
p2868
(lp2869
g4
asS'Attractions'
p2870
(lp2871
g4
asS'Club),'
p2872
(lp2873
g3
asS'compete'
p2874
(lp2875
g2
asS'Dual'
p2876
(lp2877
g3
asS'Lehartara,'
p2878
(lp2879
g3
asS'Techniques'
p2880
(lp2881
g3
asa.